target datalayout = "e-m:e-p270:32:32-p271:32:32-p272:64:64-i64:64-i128:128-f80:128-n8:16:32:64-S128"
target triple = "x86_64-pc-linux-gnu"

%struct.ssl_ecdh_method_st = type { i32, i16, [8 x i8], ptr, ptr, ptr }
%struct.ssl_ecdh_ctx_st = type { ptr, ptr }

; Function Attrs: nounwind uwtable
define internal i32 @ssl_ec_point_generate_keypair(ptr noundef %0, ptr noundef %1) #0 {
  %3 = alloca i32, align 4
  %4 = alloca ptr, align 8
  %5 = alloca ptr, align 8
  %6 = alloca ptr, align 8
  %7 = alloca i32, align 4
  %8 = alloca ptr, align 8
  %9 = alloca i32, align 4
  %10 = alloca ptr, align 8
  %11 = alloca ptr, align 8
  %12 = alloca ptr, align 8
  store ptr %0, ptr %4, align 8, !tbaa !25
  store ptr %1, ptr %5, align 8, !tbaa !33
  call void @llvm.lifetime.start.p0(i64 8, ptr %6) #5
  %13 = call ptr @BN_new()
  store ptr %13, ptr %6, align 8, !tbaa !43
  %14 = load ptr, ptr %6, align 8, !tbaa !43
  %15 = icmp eq ptr %14, null
  br i1 %15, label %16, label %17

16:                                               ; preds = %2
  store i32 0, ptr %3, align 4
  store i32 1, ptr %7, align 4
  br label %78

17:                                               ; preds = %2
  %18 = load ptr, ptr %6, align 8, !tbaa !43
  %19 = load ptr, ptr %4, align 8, !tbaa !25
  %20 = getelementptr inbounds nuw %struct.ssl_ecdh_ctx_st, ptr %19, i32 0, i32 1
  store ptr %18, ptr %20, align 8, !tbaa !30
  call void @llvm.lifetime.start.p0(i64 8, ptr %8) #5
  %21 = call ptr @BN_CTX_new()
  store ptr %21, ptr %8, align 8, !tbaa !45
  %22 = load ptr, ptr %8, align 8, !tbaa !45
  %23 = icmp eq ptr %22, null
  br i1 %23, label %24, label %25

24:                                               ; preds = %17
  store i32 0, ptr %3, align 4
  store i32 1, ptr %7, align 4
  br label %77

25:                                               ; preds = %17
  %26 = load ptr, ptr %8, align 8, !tbaa !45
  call void @BN_CTX_start(ptr noundef %26)
  call void @llvm.lifetime.start.p0(i64 4, ptr %9) #5
  store i32 0, ptr %9, align 4, !tbaa !22
  call void @llvm.lifetime.start.p0(i64 8, ptr %10) #5
  store ptr null, ptr %10, align 8, !tbaa !47
  call void @llvm.lifetime.start.p0(i64 8, ptr %11) #5
  %27 = load ptr, ptr %4, align 8, !tbaa !25
  %28 = getelementptr inbounds nuw %struct.ssl_ecdh_ctx_st, ptr %27, i32 0, i32 0
  %29 = load ptr, ptr %28, align 8, !tbaa !27
  %30 = getelementptr inbounds nuw %struct.ssl_ecdh_method_st, ptr %29, i32 0, i32 0
  %31 = load i32, ptr %30, align 8, !tbaa !23
  %32 = call ptr @EC_GROUP_new_by_curve_name(i32 noundef %31)
  store ptr %32, ptr %11, align 8, !tbaa !49
  %33 = load ptr, ptr %11, align 8, !tbaa !49
  %34 = icmp eq ptr %33, null
  br i1 %34, label %35, label %36

35:                                               ; preds = %25
  br label %71

36:                                               ; preds = %25
  %37 = load ptr, ptr %11, align 8, !tbaa !49
  %38 = call ptr @EC_GROUP_get0_order(ptr noundef %37)
  store ptr %38, ptr %12, align 8, !tbaa !43
  br label %39

39:                                               ; preds = %46, %36
  %40 = load ptr, ptr %6, align 8, !tbaa !43
  %41 = load ptr, ptr %12, align 8, !tbaa !43
  %42 = call i32 @BN_rand_range(ptr noundef %40, ptr noundef %41)
  %43 = icmp ne i32 %42, 0
  br i1 %43, label %45, label %44

44:                                               ; preds = %39
  br label %71

45:                                               ; preds = %39
  br label %46

46:                                               ; preds = %45
  %47 = load ptr, ptr %6, align 8, !tbaa !43
  %48 = call i32 @BN_is_zero(ptr noundef %47)
  %49 = icmp ne i32 %48, 0
  br i1 %49, label %39, label %50, !llvm.loop !51

50:                                               ; preds = %46
  %51 = load ptr, ptr %11, align 8, !tbaa !49
  %52 = call ptr @EC_POINT_new(ptr noundef %51)
  store ptr %52, ptr %10, align 8, !tbaa !47
  %53 = load ptr, ptr %10, align 8, !tbaa !47
  %54 = icmp eq ptr %53, null
  br i1 %54, label %69, label %55

55:                                               ; preds = %50
  %56 = load ptr, ptr %11, align 8, !tbaa !49
  %57 = load ptr, ptr %10, align 8, !tbaa !47
  %58 = load ptr, ptr %6, align 8, !tbaa !43
  %59 = load ptr, ptr %8, align 8, !tbaa !45
  %60 = call i32 @EC_POINT_mul(ptr noundef %56, ptr noundef %57, ptr noundef %58, ptr noundef null, ptr noundef null, ptr noundef %59)
  %61 = icmp ne i32 %60, 0
  br i1 %61, label %62, label %69

62:                                               ; preds = %55
  %63 = load ptr, ptr %5, align 8, !tbaa !33
  %64 = load ptr, ptr %11, align 8, !tbaa !49
  %65 = load ptr, ptr %10, align 8, !tbaa !47
  %66 = load ptr, ptr %8, align 8, !tbaa !45
  %67 = call i32 @EC_POINT_point2cbb(ptr noundef %63, ptr noundef %64, ptr noundef %65, i32 noundef 4, ptr noundef %66)
  %68 = icmp ne i32 %67, 0
  br i1 %68, label %70, label %69

69:                                               ; preds = %62, %55, %50
  br label %71

70:                                               ; preds = %62
  store i32 1, ptr %9, align 4, !tbaa !22
  br label %71

71:                                               ; preds = %70, %69, %44, %35
  %72 = load ptr, ptr %11, align 8, !tbaa !49
  call void @EC_GROUP_free(ptr noundef %72)
  %73 = load ptr, ptr %10, align 8, !tbaa !47
  call void @EC_POINT_free(ptr noundef %73)
  %74 = load ptr, ptr %8, align 8, !tbaa !45
  call void @BN_CTX_end(ptr noundef %74)
  %75 = load ptr, ptr %8, align 8, !tbaa !45
  call void @BN_CTX_free(ptr noundef %75)
  %76 = load i32, ptr %9, align 4, !tbaa !22
  store i32 %76, ptr %3, align 4
  store i32 1, ptr %7, align 4
  call void @llvm.lifetime.end.p0(i64 8, ptr %11) #5
  call void @llvm.lifetime.end.p0(i64 8, ptr %10) #5
  call void @llvm.lifetime.end.p0(i64 4, ptr %9) #5
  br label %77

77:                                               ; preds = %71, %24
  call void @llvm.lifetime.end.p0(i64 8, ptr %8) #5
  br label %78

78:                                               ; preds = %77, %16
  call void @llvm.lifetime.end.p0(i64 8, ptr %6) #5
  %79 = load i32, ptr %3, align 4
  ret i32 %79
}