; Function Attrs: nounwind uwtable
define internal range(i32 0, 2) i32 @ssl_ec_point_generate_keypair(ptr noundef captures(none) %0, ptr noundef %1) #3 {
  %3 = tail call ptr @BN_new() #8
  %4 = icmp eq ptr %3, null
  br i1 %4, label %27, label %5

5:                                                ; preds = %2
  %6 = getelementptr inbounds nuw i8, ptr %0, i64 8
  store ptr %3, ptr %6, align 8, !tbaa !22
  %7 = tail call ptr @BN_CTX_new() #8
  %8 = icmp eq ptr %7, null
  br i1 %8, label %27, label %9

9:                                                ; preds = %5
  tail call void @BN_CTX_start(ptr noundef nonnull %7) #8
  %10 = load ptr, ptr %0, align 8, !tbaa !18
  %11 = load i32, ptr %10, align 8, !tbaa !16
  %12 = tail call ptr @EC_GROUP_new_by_curve_name(i32 noundef %11) #8
  %13 = icmp eq ptr %12, null
  br i1 %13, label %.loopexit, label %14

14:                                               ; preds = %9
  %15 = tail call ptr @EC_GROUP_get0_order(ptr noundef nonnull %12) #8
  br label %16

16:                                               ; preds = %18, %14
  %17 = tail call i32 @BN_rand_range(ptr noundef nonnull %3, ptr noundef %15) #8
  %.not = icmp eq i32 %17, 0
  br i1 %.not, label %.loopexit, label %18

18:                                               ; preds = %16
  %19 = tail call i32 @BN_is_zero(ptr noundef nonnull %3) #8
  %.not33 = icmp eq i32 %19, 0
  br i1 %.not33, label %20, label %16, !llvm.loop !25

20:                                               ; preds = %18
  %21 = tail call ptr @EC_POINT_new(ptr noundef nonnull %12) #8
  %22 = icmp eq ptr %21, null
  br i1 %22, label %.loopexit, label %23

23:                                               ; preds = %20
  %24 = tail call i32 @EC_POINT_mul(ptr noundef nonnull %12, ptr noundef nonnull %21, ptr noundef nonnull %3, ptr noundef null, ptr noundef null, ptr noundef nonnull %7) #8
  %.not34 = icmp eq i32 %24, 0
  br i1 %.not34, label %.loopexit, label %25

25:                                               ; preds = %23
  %26 = tail call i32 @EC_POINT_point2cbb(ptr noundef %1, ptr noundef nonnull %12, ptr noundef nonnull %21, i32 noundef 4, ptr noundef nonnull %7) #8
  %.not35 = icmp ne i32 %26, 0
  %spec.select = zext i1 %.not35 to i32
  br label %.loopexit

.loopexit:                                        ; preds = %16, %25, %20, %23, %9
  %.027 = phi i32 [ 0, %9 ], [ 0, %20 ], [ 0, %23 ], [ %spec.select, %25 ], [ 0, %16 ]
  %.026 = phi ptr [ null, %9 ], [ null, %20 ], [ %21, %23 ], [ %21, %25 ], [ null, %16 ]
  tail call void @EC_GROUP_free(ptr noundef %12) #8
  tail call void @EC_POINT_free(ptr noundef %.026) #8
  tail call void @BN_CTX_end(ptr noundef nonnull %7) #8
  tail call void @BN_CTX_free(ptr noundef nonnull %7) #8
  br label %27

27:                                               ; preds = %.loopexit, %5, %2
  %.0 = phi i32 [ 0, %2 ], [ %.027, %.loopexit ], [ 0, %5 ]
  ret i32 %.0
}